(dp1
S'sw2005_A_0158'
p2
(dp3
S'pause_bef'
p4
(lp5
I6
aI1
aI1
aI2
aI1
aI2
aI1
aI1
aI4
aI4
aI1
aI5
aI1
aI1
aI1
aI1
aI1
aI1
aI1
aI1
aI5
aI1
aI1
aI1
aI1
aI1
aI1
aI1
aI1
aI5
aI1
aI1
aI1
aI1
aI1
aI1
aI1
aI1
aI1
aI1
asS'pause_aft'
p6
(lp7
I1
aI1
aI2
aI1
aI2
aI1
aI1
aI4
aI4
aI1
aI5
aI1
aI1
aI1
aI1
aI1
aI1
aI1
aI1
aI5
aI1
aI1
aI1
aI1
aI1
aI1
aI1
aI1
aI5
aI1
aI1
aI1
aI1
aI1
aI1
aI1
aI1
aI1
aI1
aI6
assS'sw2005_A_0075'
p8
(dp9
g4
(lp10
I6
aI1
aI1
aI1
aI1
aI1
aI1
aI1
aI1
aI1
aI1
aI1
aI1
aI1
aI1
aI1
aI1
aI1
aI5
aI1
aI4
aI1
aI1
aI1
asg6
(lp11
I1
aI1
aI1
aI1
aI1
aI1
aI1
aI1
aI1
aI1
aI1
aI1
aI1
aI1
aI1
aI1
aI1
aI5
aI1
aI4
aI1
aI1
aI1
aI6
assS'sw2005_A_0071'
p12
(dp13
g4
(lp14
I6
aI1
aI1
aI1
aI1
aI1
aI1
aI1
aI1
aI1
aI5
asg6
(lp15
I1
aI1
aI1
aI1
aI1
aI1
aI1
aI1
aI1
aI5
aI6
assS'sw2005_A_0072'
p16
(dp17
g4
(lp18
I6
aI1
aI1
aI1
aI1
aI1
aI1
asg6
(lp19
I1
aI1
aI1
aI1
aI1
aI1
aI6
assS'sw2005_A_0073'
p20
(dp21
g4
(lp22
I6
aI1
aI1
aI1
aI1
aI1
asg6
(lp23
I1
aI1
aI1
aI1
aI1
aI6
assS'sw2005_A_0176'
p24
(dp25
g4
(lp26
I6
aI4
aI1
aI1
aI5
aI1
aI1
aI1
aI1
aI1
aI1
aI1
aI1
aI1
aI1
aI1
aI5
aI1
aI1
aI1
aI5
aI4
aI4
aI1
aI1
aI2
aI2
aI2
aI1
aI4
aI5
aI2
aI1
aI2
aI1
aI1
aI1
aI1
aI1
aI1
aI1
asg6
(lp27
I4
aI1
aI1
aI5
aI1
aI1
aI1
aI1
aI1
aI1
aI1
aI1
aI1
aI1
aI1
aI5
aI1
aI1
aI1
aI5
aI4
aI4
aI1
aI1
aI2
aI2
aI2
aI1
aI4
aI5
aI2
aI1
aI2
aI1
aI1
aI1
aI1
aI1
aI1
aI1
aI6
assS'sw2005_A_0173'
p28
(dp29
g4
(lp30
I6
asg6
(lp31
I6
assS'sw2005_A_0172'
p32
(dp33
g4
(lp34
I6
aI6
asg6
(lp35
I6
aI6
assS'sw2005_A_0178'
p36
(dp37
g4
(lp38
I6
asg6
(lp39
I6
assS'sw2005_A_0001'
p40
(dp41
g4
(lp42
I6
asg6
(lp43
I6
assS'sw2005_A_0002'
p44
(dp45
g4
(lp46
I6
aI1
aI1
aI5
aI1
aI1
aI1
aI1
aI5
aI1
aI1
aI1
aI1
aI4
aI4
aI1
aI5
aI1
aI1
aI5
aI5
aI1
aI1
aI1
aI1
aI1
asg6
(lp47
I1
aI1
aI5
aI1
aI1
aI1
aI1
aI5
aI1
aI1
aI1
aI1
aI4
aI4
aI1
aI5
aI1
aI1
aI5
aI5
aI1
aI1
aI1
aI1
aI1
aI6
assS'sw2005_A_0005'
p48
(dp49
g4
(lp50
I6
asg6
(lp51
I6
assS'sw2005_A_0004'
p52
(dp53
g4
(lp54
I6
asg6
(lp55
I6
assS'sw2005_A_0164'
p56
(dp57
g4
(lp58
I6
aI1
aI1
aI1
aI1
aI1
aI1
aI1
aI1
aI1
aI4
aI1
aI1
aI1
aI1
aI1
aI1
aI5
aI1
aI1
aI2
aI5
aI1
aI5
aI1
aI1
aI1
aI4
aI1
aI4
aI1
aI1
aI1
aI1
aI1
aI1
aI2
aI1
aI1
aI1
aI5
aI1
aI1
aI1
aI1
aI1
aI5
aI1
aI1
asg6
(lp59
I1
aI1
aI1
aI1
aI1
aI1
aI1
aI1
aI1
aI4
aI1
aI1
aI1
aI1
aI1
aI1
aI5
aI1
aI1
aI2
aI5
aI1
aI5
aI1
aI1
aI1
aI4
aI1
aI4
aI1
aI1
aI1
aI1
aI1
aI1
aI2
aI1
aI1
aI1
aI5
aI1
aI1
aI1
aI1
aI1
aI5
aI1
aI1
aI6
assS'sw2005_A_0162'
p60
(dp61
g4
(lp62
I6
aI1
aI2
asg6
(lp63
I1
aI2
aI6
assS'sw2005_A_0160'
p64
(dp65
g4
(lp66
I6
aI5
aI1
aI1
aI1
aI1
aI1
aI1
aI1
aI1
aI1
aI1
aI1
aI1
asg6
(lp67
I5
aI1
aI1
aI1
aI1
aI1
aI1
aI1
aI1
aI1
aI1
aI1
aI1
aI6
assS'sw2005_A_0080'
p68
(dp69
g4
(lp70
I6
aI1
aI1
aI5
aI5
aI1
asg6
(lp71
I1
aI1
aI5
aI5
aI1
aI6
assS'sw2005_A_0082'
p72
(dp73
g4
(lp74
I6
aI1
aI1
aI1
aI1
aI1
aI5
aI1
aI4
aI1
aI1
aI1
aI1
aI1
aI1
aI1
aI1
aI1
aI4
aI1
aI1
aI1
aI1
aI1
aI1
aI1
aI1
aI4
aI1
aI5
aI1
aI1
asg6
(lp75
I1
aI1
aI1
aI1
aI1
aI5
aI1
aI4
aI1
aI1
aI1
aI1
aI1
aI1
aI1
aI1
aI1
aI4
aI1
aI1
aI1
aI1
aI1
aI1
aI1
aI1
aI4
aI1
aI5
aI1
aI1
aI6
assS'sw2005_A_0087'
p76
(dp77
g4
(lp78
I6
aI1
asg6
(lp79
I1
aI6
assS'sw2005_A_0086'
p80
(dp81
g4
(lp82
I6
aI1
asg6
(lp83
I1
aI6
assS'sw2005_A_0038'
p84
(dp85
g4
(lp86
I6
aI1
aI1
aI1
aI1
aI1
aI1
aI1
aI1
aI5
aI1
aI1
aI1
aI1
asg6
(lp87
I1
aI1
aI1
aI1
aI1
aI1
aI1
aI1
aI5
aI1
aI1
aI1
aI1
aI6
assS'sw2005_A_0012'
p88
(dp89
g4
(lp90
I6
asg6
(lp91
I6
assS'sw2005_A_0010'
p92
(dp93
g4
(lp94
I6
asg6
(lp95
I6
assS'sw2005_A_0208'
p96
(dp97
g4
(lp98
I6
asg6
(lp99
I6
assS'sw2005_A_0157'
p100
(dp101
g4
(lp102
I6
asg6
(lp103
I6
assS'sw2005_A_0155'
p104
(dp105
g4
(lp106
I6
asg6
(lp107
I6
assS'sw2005_A_0154'
p108
(dp109
g4
(lp110
I6
asg6
(lp111
I6
assS'sw2005_A_0202'
p112
(dp113
g4
(lp114
I6
asg6
(lp115
I6
assS'sw2005_A_0201'
p116
(dp117
g4
(lp118
I6
asg6
(lp119
I6
assS'sw2005_A_0200'
p120
(dp121
g4
(lp122
I6
asg6
(lp123
I6
assS'sw2005_A_0205'
p124
(dp125
g4
(lp126
I6
aI6
aI1
aI1
aI1
aI1
asg6
(lp127
I6
aI1
aI1
aI1
aI1
aI6
assS'sw2005_A_0204'
p128
(dp129
g4
(lp130
I6
asg6
(lp131
I6
assS'sw2005_A_0092'
p132
(dp133
g4
(lp134
I6
aI1
aI1
aI1
aI1
aI5
aI1
aI1
aI5
aI1
aI1
aI1
aI1
aI1
aI1
aI1
aI1
aI1
aI1
aI1
aI1
aI1
aI1
aI1
aI1
aI1
aI1
aI1
aI1
asg6
(lp135
I1
aI1
aI1
aI1
aI5
aI1
aI1
aI5
aI1
aI1
aI1
aI1
aI1
aI1
aI1
aI1
aI1
aI1
aI1
aI1
aI1
aI1
aI1
aI1
aI1
aI1
aI1
aI1
aI6
assS'sw2005_A_0091'
p136
(dp137
g4
(lp138
I6
aI1
aI1
asg6
(lp139
I1
aI1
aI6
assS'sw2005_A_0097'
p140
(dp141
g4
(lp142
I6
asg6
(lp143
I6
assS'sw2005_A_0098'
p144
(dp145
g4
(lp146
I6
asg6
(lp147
I6
assS'sw2005_A_0099'
p148
(dp149
g4
(lp150
I6
aI1
aI1
asg6
(lp151
I1
aI1
aI6
assS'sw2005_A_0148'
p152
(dp153
g4
(lp154
I6
aI1
asg6
(lp155
I1
aI6
assS'sw2005_A_0149'
p156
(dp157
g4
(lp158
I6
aI1
aI1
aI1
aI1
aI1
aI1
aI1
asg6
(lp159
I1
aI1
aI1
aI1
aI1
aI1
aI1
aI6
assS'sw2005_A_0020'
p160
(dp161
g4
(lp162
I6
asg6
(lp163
I6
assS'sw2005_A_0140'
p164
(dp165
g4
(lp166
I6
aI1
aI1
aI1
aI1
aI4
aI5
aI1
aI5
aI1
aI1
aI1
aI1
aI1
aI1
aI1
aI1
aI4
aI1
aI1
aI1
aI1
asg6
(lp167
I1
aI1
aI1
aI1
aI4
aI5
aI1
aI5
aI1
aI1
aI1
aI1
aI1
aI1
aI1
aI1
aI4
aI1
aI1
aI1
aI1
aI6
assS'sw2005_A_0214'
p168
(dp169
g4
(lp170
I6
asg6
(lp171
I6
assS'sw2005_A_0210'
p172
(dp173
g4
(lp174
I6
aI1
asg6
(lp175
I1
aI6
assS'sw2005_B_0009'
p176
(dp177
g4
(lp178
I6
aI1
aI1
aI5
aI1
aI1
aI1
aI4
aI2
aI2
aI5
aI1
aI1
aI1
aI1
asg6
(lp179
I1
aI1
aI5
aI1
aI1
aI1
aI4
aI2
aI2
aI5
aI1
aI1
aI1
aI1
aI6
assS'sw2005_A_0212'
p180
(dp181
g4
(lp182
I6
asg6
(lp183
I6
assS'sw2005_B_0006'
p184
(dp185
g4
(lp186
I6
aI2
aI1
aI1
aI1
aI1
aI5
aI1
aI4
aI1
aI5
aI1
aI1
asg6
(lp187
I2
aI1
aI1
aI1
aI1
aI5
aI1
aI4
aI1
aI5
aI1
aI1
aI6
assS'sw2005_B_0007'
p188
(dp189
g4
(lp190
I6
aI4
asg6
(lp191
I4
aI6
assS'sw2005_B_0003'
p192
(dp193
g4
(lp194
I6
aI1
aI1
aI1
aI2
aI1
aI1
aI1
aI2
aI5
aI1
aI1
aI1
aI1
aI1
aI1
aI1
aI1
aI1
aI2
aI1
aI1
aI1
aI1
aI1
aI1
aI1
aI1
aI2
aI1
aI1
aI1
aI5
aI4
aI1
aI4
aI2
aI2
aI1
aI5
aI5
aI1
aI1
aI1
aI1
aI1
asg6
(lp195
I1
aI1
aI1
aI2
aI1
aI1
aI1
aI2
aI5
aI1
aI1
aI1
aI1
aI1
aI1
aI1
aI1
aI1
aI2
aI1
aI1
aI1
aI1
aI1
aI1
aI1
aI1
aI2
aI1
aI1
aI1
aI5
aI4
aI1
aI4
aI2
aI2
aI1
aI5
aI5
aI1
aI1
aI1
aI1
aI1
aI6
assS'sw2005_A_0031'
p196
(dp197
g4
(lp198
I6
asg6
(lp199
I6
assS'sw2005_A_0032'
p200
(dp201
g4
(lp202
I6
asg6
(lp203
I6
assS'sw2005_A_0033'
p204
(dp205
g4
(lp206
I6
aI1
aI1
aI1
aI5
aI4
aI1
aI1
aI4
aI1
aI1
aI1
aI1
aI1
aI1
aI1
aI1
aI2
aI2
aI1
asg6
(lp207
I1
aI1
aI1
aI5
aI4
aI1
aI1
aI4
aI1
aI1
aI1
aI1
aI1
aI1
aI1
aI1
aI2
aI2
aI1
aI6
assS'sw2005_A_0034'
p208
(dp209
g4
(lp210
I6
aI5
aI1
aI1
aI1
aI1
aI1
aI1
aI4
aI1
aI1
aI2
aI1
aI1
aI1
aI1
aI1
aI1
asg6
(lp211
I5
aI1
aI1
aI1
aI1
aI1
aI1
aI4
aI1
aI1
aI2
aI1
aI1
aI1
aI1
aI1
aI1
aI6
assS'sw2005_A_0035'
p212
(dp213
g4
(lp214
I6
aI1
aI5
aI1
aI1
aI1
asg6
(lp215
I1
aI5
aI1
aI1
aI1
aI6
assS'sw2005_A_0036'
p216
(dp217
g4
(lp218
I6
aI1
aI1
aI1
aI1
aI1
aI5
aI2
aI1
asg6
(lp219
I1
aI1
aI1
aI1
aI1
aI5
aI2
aI1
aI6
assS'sw2005_A_0131'
p220
(dp221
g4
(lp222
I6
aI1
aI1
aI1
aI1
aI1
aI1
aI1
aI1
aI1
asg6
(lp223
I1
aI1
aI1
aI1
aI1
aI1
aI1
aI1
aI1
aI6
assS'sw2005_A_0130'
p224
(dp225
g4
(lp226
I6
aI5
asg6
(lp227
I5
aI6
assS'sw2005_A_0132'
p228
(dp229
g4
(lp230
I6
aI1
aI1
aI1
aI2
aI2
aI4
aI1
aI2
aI1
aI1
aI1
aI1
aI5
aI1
aI1
aI1
aI1
aI5
aI1
aI1
aI1
aI1
aI1
aI5
aI4
aI2
aI1
aI1
aI1
aI1
aI1
aI1
aI5
aI1
aI1
aI1
aI1
asg6
(lp231
I1
aI1
aI1
aI2
aI2
aI4
aI1
aI2
aI1
aI1
aI1
aI1
aI5
aI1
aI1
aI1
aI1
aI5
aI1
aI1
aI1
aI1
aI1
aI5
aI4
aI2
aI1
aI1
aI1
aI1
aI1
aI1
aI5
aI1
aI1
aI1
aI1
aI6
assS'sw2005_A_0137'
p232
(dp233
g4
(lp234
I6
aI1
aI6
aI1
aI4
aI1
aI1
aI1
aI4
aI5
aI1
aI5
aI1
aI5
aI4
aI5
aI1
aI1
aI5
aI1
aI2
aI5
aI5
aI1
aI1
aI5
aI4
aI1
aI1
aI5
aI5
aI1
aI1
aI1
asg6
(lp235
I1
aI6
aI1
aI4
aI1
aI1
aI1
aI4
aI5
aI1
aI5
aI1
aI5
aI4
aI5
aI1
aI1
aI5
aI1
aI2
aI5
aI5
aI1
aI1
aI5
aI4
aI1
aI1
aI5
aI5
aI1
aI1
aI1
aI6
assS'sw2005_B_0008'
p236
(dp237
g4
(lp238
I6
aI1
aI4
aI1
aI1
aI1
aI1
aI4
aI1
asg6
(lp239
I1
aI4
aI1
aI1
aI1
aI1
aI4
aI1
aI6
assS'sw2005_A_0120'
p240
(dp241
g4
(lp242
I6
aI1
aI1
aI1
aI5
aI1
aI1
aI1
asg6
(lp243
I1
aI1
aI1
aI5
aI1
aI1
aI1
aI6
assS'sw2005_A_0121'
p244
(dp245
g4
(lp246
I6
aI1
aI1
aI5
aI1
aI1
aI1
aI1
aI1
aI1
aI2
asg6
(lp247
I1
aI1
aI5
aI1
aI1
aI1
aI1
aI1
aI1
aI2
aI6
assS'sw2005_A_0126'
p248
(dp249
g4
(lp250
I6
aI2
aI2
aI1
aI1
aI1
aI1
aI1
asg6
(lp251
I2
aI2
aI1
aI1
aI1
aI1
aI1
aI6
assS'sw2005_A_0127'
p252
(dp253
g4
(lp254
I6
aI1
aI1
aI1
aI1
aI1
aI5
aI1
asg6
(lp255
I1
aI1
aI1
aI1
aI1
aI5
aI1
aI6
assS'sw2005_A_0125'
p256
(dp257
g4
(lp258
I6
aI5
aI1
aI1
aI1
aI1
aI1
aI1
aI5
aI1
aI1
aI5
aI1
aI1
aI1
asg6
(lp259
I5
aI1
aI1
aI1
aI1
aI1
aI1
aI5
aI1
aI1
aI5
aI1
aI1
aI1
aI6
assS'sw2005_A_0045'
p260
(dp261
g4
(lp262
I6
aI5
aI1
aI1
aI1
aI1
aI1
aI1
aI1
aI1
aI4
aI1
aI1
aI1
aI1
asg6
(lp263
I5
aI1
aI1
aI1
aI1
aI1
aI1
aI1
aI1
aI4
aI1
aI1
aI1
aI1
aI6
assS'sw2005_A_0044'
p264
(dp265
g4
(lp266
I6
aI1
aI1
aI5
aI1
aI1
aI1
aI4
aI1
aI1
aI1
aI5
aI1
aI1
asg6
(lp267
I1
aI1
aI5
aI1
aI1
aI1
aI4
aI1
aI1
aI1
aI5
aI1
aI1
aI6
assS'sw2005_A_0047'
p268
(dp269
g4
(lp270
I6
aI1
aI1
aI1
aI1
aI1
aI1
aI1
aI1
aI1
aI1
aI1
aI1
aI1
asg6
(lp271
I1
aI1
aI1
aI1
aI1
aI1
aI1
aI1
aI1
aI1
aI1
aI1
aI1
aI6
assS'sw2005_A_0041'
p272
(dp273
g4
(lp274
I6
aI1
aI5
aI1
aI1
aI1
aI5
asg6
(lp275
I1
aI5
aI1
aI1
aI1
aI5
aI6
assS'sw2005_A_0040'
p276
(dp277
g4
(lp278
I6
aI1
aI5
aI1
aI1
aI1
asg6
(lp279
I1
aI5
aI1
aI1
aI1
aI6
assS'sw2005_A_0049'
p280
(dp281
g4
(lp282
I6
aI5
aI1
aI1
aI1
aI5
aI1
aI1
aI1
aI1
aI1
aI1
aI1
aI1
aI1
asg6
(lp283
I5
aI1
aI1
aI1
aI5
aI1
aI1
aI1
aI1
aI1
aI1
aI1
aI1
aI1
aI6
assS'sw2005_A_0068'
p284
(dp285
g4
(lp286
I6
aI4
aI1
aI5
aI5
asg6
(lp287
I4
aI1
aI5
aI5
aI6
assS'sw2005_A_0117'
p288
(dp289
g4
(lp290
I6
aI1
aI1
aI1
aI1
asg6
(lp291
I1
aI1
aI1
aI1
aI6
assS'sw2005_A_0116'
p292
(dp293
g4
(lp294
I6
aI1
aI1
aI1
aI1
aI1
aI1
aI1
aI1
aI1
aI4
aI1
aI1
aI4
aI1
aI1
aI1
aI1
aI1
aI1
aI1
aI1
aI5
asg6
(lp295
I1
aI1
aI1
aI1
aI1
aI1
aI1
aI1
aI1
aI4
aI1
aI1
aI4
aI1
aI1
aI1
aI1
aI1
aI1
aI1
aI1
aI5
aI6
assS'sw2005_A_0115'
p296
(dp297
g4
(lp298
I6
asg6
(lp299
I6
assS'sw2005_A_0114'
p300
(dp301
g4
(lp302
I6
asg6
(lp303
I6
assS'sw2005_A_0118'
p304
(dp305
g4
(lp306
I6
aI4
aI1
aI1
aI1
aI1
aI1
asg6
(lp307
I4
aI1
aI1
aI1
aI1
aI1
aI6
assS'sw2005_A_0054'
p308
(dp309
g4
(lp310
I6
aI1
aI1
aI1
aI1
aI1
aI1
aI1
aI1
aI1
aI5
aI1
aI5
aI1
aI1
aI2
aI5
aI1
aI2
aI1
aI1
aI1
aI1
asg6
(lp311
I1
aI1
aI1
aI1
aI1
aI1
aI1
aI1
aI1
aI5
aI1
aI5
aI1
aI1
aI2
aI5
aI1
aI2
aI1
aI1
aI1
aI1
aI6
assS'sw2005_A_0052'
p312
(dp313
g4
(lp314
I6
aI1
aI5
aI1
aI1
aI1
aI1
aI1
asg6
(lp315
I1
aI5
aI1
aI1
aI1
aI1
aI1
aI6
assS'sw2005_A_0195'
p316
(dp317
g4
(lp318
I6
aI1
aI5
aI1
aI1
aI1
aI1
aI4
aI1
aI1
aI1
aI1
aI4
aI1
aI1
aI1
aI1
asg6
(lp319
I1
aI5
aI1
aI1
aI1
aI1
aI4
aI1
aI1
aI1
aI1
aI4
aI1
aI1
aI1
aI1
aI6
assS'sw2005_A_0192'
p320
(dp321
g4
(lp322
I6
aI1
aI1
aI1
aI1
aI1
aI1
aI1
aI1
aI1
aI5
aI1
aI1
aI5
aI1
aI5
aI1
aI1
aI1
aI1
aI1
aI1
aI1
aI1
aI5
aI1
aI5
aI1
aI5
aI1
aI1
aI1
aI1
aI1
aI1
aI1
asg6
(lp323
I1
aI1
aI1
aI1
aI1
aI1
aI1
aI1
aI1
aI5
aI1
aI1
aI5
aI1
aI5
aI1
aI1
aI1
aI1
aI1
aI1
aI1
aI1
aI5
aI1
aI5
aI1
aI5
aI1
aI1
aI1
aI1
aI1
aI1
aI1
aI6
assS'sw2005_A_0058'
p324
(dp325
g4
(lp326
I6
asg6
(lp327
I6
assS'sw2005_A_0059'
p328
(dp329
g4
(lp330
I6
aI1
aI5
aI1
aI1
aI1
aI5
aI1
aI1
aI1
aI1
aI1
aI1
aI1
aI1
aI4
aI5
aI1
aI1
aI1
aI1
aI1
aI1
aI1
aI1
aI1
aI5
aI1
aI1
aI5
aI1
aI1
aI1
aI1
aI1
aI1
aI1
aI1
aI1
aI1
asg6
(lp331
I1
aI5
aI1
aI1
aI1
aI5
aI1
aI1
aI1
aI1
aI1
aI1
aI1
aI1
aI4
aI5
aI1
aI1
aI1
aI1
aI1
aI1
aI1
aI1
aI1
aI5
aI1
aI1
aI5
aI1
aI1
aI1
aI1
aI1
aI1
aI1
aI1
aI1
aI1
aI6
assS'sw2005_A_0101'
p332
(dp333
g4
(lp334
I6
asg6
(lp335
I6
assS'sw2005_A_0103'
p336
(dp337
g4
(lp338
I6
asg6
(lp339
I6
assS'sw2005_A_0107'
p340
(dp341
g4
(lp342
I6
asg6
(lp343
I6
assS'sw2005_A_0109'
p344
(dp345
g4
(lp346
I6
asg6
(lp347
I6
assS'sw2005_A_0188'
p348
(dp349
g4
(lp350
I6
aI1
aI1
aI1
aI5
aI1
aI1
aI1
aI1
aI6
aI5
aI1
aI1
aI1
aI2
aI1
aI1
aI1
asg6
(lp351
I1
aI1
aI1
aI5
aI1
aI1
aI1
aI1
aI6
aI5
aI1
aI1
aI1
aI2
aI1
aI1
aI1
aI6
assS'sw2005_A_0062'
p352
(dp353
g4
(lp354
I6
aI5
aI1
aI1
aI1
aI1
aI1
aI2
aI1
aI2
aI1
aI1
aI1
asg6
(lp355
I5
aI1
aI1
aI1
aI1
aI1
aI2
aI1
aI2
aI1
aI1
aI1
aI6
assS'sw2005_A_0067'
p356
(dp357
g4
(lp358
I6
asg6
(lp359
I6
assS'sw2005_A_0064'
p360
(dp361
g4
(lp362
I6
aI1
asg6
(lp363
I1
aI6
assS'sw2005_A_0180'
p364
(dp365
g4
(lp366
I6
aI1
aI1
aI1
aI1
aI1
aI1
asg6
(lp367
I1
aI1
aI1
aI1
aI1
aI1
aI6
assS'sw2005_A_0069'
p368
(dp369
g4
(lp370
I6
aI1
aI1
aI1
aI1
aI1
aI4
aI1
aI1
aI1
aI1
aI1
aI1
aI1
aI1
aI1
aI5
aI1
aI1
aI1
aI1
aI1
aI1
aI1
aI5
aI1
aI4
aI1
asg6
(lp371
I1
aI1
aI1
aI1
aI1
aI4
aI1
aI1
aI1
aI1
aI1
aI1
aI1
aI1
aI1
aI5
aI1
aI1
aI1
aI1
aI1
aI1
aI1
aI5
aI1
aI4
aI1
aI6
assS'sw2005_A_0183'
p372
(dp373
g4
(lp374
I6
asg6
(lp375
I6
assS'sw2005_A_0184'
p376
(dp377
g4
(lp378
I6
aI1
aI2
aI1
aI1
aI1
aI1
aI4
aI1
aI5
aI1
aI4
aI5
aI1
aI1
aI2
aI4
aI2
aI1
aI1
aI5
aI1
aI1
aI1
aI1
aI1
aI1
aI1
aI1
aI1
aI5
aI1
aI1
aI2
aI1
aI4
aI1
aI1
asg6
(lp379
I1
aI2
aI1
aI1
aI1
aI1
aI4
aI1
aI5
aI1
aI4
aI5
aI1
aI1
aI2
aI4
aI2
aI1
aI1
aI5
aI1
aI1
aI1
aI1
aI1
aI1
aI1
aI1
aI1
aI5
aI1
aI1
aI2
aI1
aI4
aI1
aI1
aI6
assS'sw2005_A_0187'
p380
(dp381
g4
(lp382
I6
aI1
aI1
aI1
aI2
asg6
(lp383
I1
aI1
aI1
aI2
aI6
ass.