(dp1
S'sw2005_A_0158'
p2
(lp3
(I0
I9
tp4
a(I8
I18
tp5
a(I17
I32
tp6
a(I17
I32
tp7
a(I31
I46
tp8
a(I40
I55
tp9
a(I54
I102
tp10
a(I101
I117
tp11
a(I130
I153
tp12
a(I162
I175
tp13
a(I174
I195
tp14
a(I226
I237
tp15
a(I236
I298
tp16
a(I297
I304
tp17
a(I303
I310
tp18
a(I309
I332
tp19
a(I331
I355
tp20
a(I354
I371
tp21
a(I370
I428
tp22
a(I427
I473
tp23
a(I518
I530
tp24
a(I529
I556
tp25
a(I555
I574
tp26
a(I573
I615
tp27
a(I614
I625
tp28
a(I624
I648
tp29
a(I647
I667
tp30
a(I666
I683
tp31
a(I682
I743
tp32
a(I784
I810
tp33
a(I810
I818
tp34
a(I817
I830
tp35
a(I829
I855
tp36
a(I854
I898
tp37
a(I897
I947
tp38
a(I946
I962
tp39
a(I961
I994
tp40
a(I993
I1001
tp41
a(I1000
I1035
tp42
a(I1034
I1077
tp43
asS'sw2005_A_0075'
p44
(lp45
(I0
I36
tp46
a(I35
I47
tp47
a(I46
I66
tp48
a(I65
I75
tp49
a(I74
I91
tp50
a(I90
I120
tp51
a(I119
I129
tp52
a(I128
I145
tp53
a(I144
I169
tp54
a(I168
I180
tp55
a(I179
I186
tp56
a(I185
I192
tp57
a(I191
I213
tp58
a(I212
I264
tp59
a(I263
I292
tp60
a(I291
I304
tp61
a(I303
I323
tp62
a(I322
I371
tp63
a(I433
I471
tp64
a(I470
I514
tp65
a(I532
I578
tp66
a(I577
I600
tp67
a(I599
I631
tp68
a(I630
I664
tp69
asS'sw2005_A_0071'
p70
(lp71
(I0
I14
tp72
a(I13
I41
tp73
a(I40
I59
tp74
a(I58
I89
tp75
a(I88
I102
tp76
a(I101
I116
tp77
a(I115
I122
tp78
a(I121
I150
tp79
a(I149
I172
tp80
a(I171
I185
tp81
a(I241
I300
tp82
asS'sw2005_A_0072'
p83
(lp84
(I0
I22
tp85
a(I21
I35
tp86
a(I34
I67
tp87
a(I66
I79
tp88
a(I78
I125
tp89
a(I124
I148
tp90
a(I147
I191
tp91
asS'sw2005_A_0073'
p92
(lp93
(I0
I17
tp94
a(I16
I24
tp95
a(I23
I62
tp96
a(I61
I80
tp97
a(I79
I86
tp98
a(I85
I154
tp99
asS'sw2005_A_0176'
p100
(lp101
(I0
I15
tp102
a(I25
I37
tp103
a(I36
I42
tp104
a(I41
I56
tp105
a(I80
I93
tp106
a(I92
I120
tp107
a(I119
I147
tp108
a(I146
I159
tp109
a(I158
I187
tp110
a(I186
I211
tp111
a(I210
I254
tp112
a(I253
I264
tp113
a(I263
I283
tp114
a(I282
I310
tp115
a(I309
I321
tp116
a(I320
I354
tp117
a(I401
I421
tp118
a(I420
I426
tp119
a(I425
I440
tp120
a(I439
I522
tp121
a(I542
I559
tp122
a(I577
I591
tp123
a(I601
I617
tp124
a(I616
I647
tp125
a(I646
I677
tp126
a(I646
I667
tp127
a(I646
I660
tp128
a(I676
I693
tp129
a(I692
I701
tp130
a(I710
I738
tp131
a(I783
I799
tp132
a(I787
I806
tp133
a(I805
I826
tp134
a(I808
I822
tp135
a(I821
I833
tp136
a(I832
I839
tp137
a(I838
I860
tp138
a(I859
I916
tp139
a(I915
I932
tp140
a(I931
I944
tp141
a(I943
I992
tp142
asS'sw2005_A_0173'
p143
(lp144
(I0
I37
tp145
asS'sw2005_A_0172'
p146
(lp147
(I0
I28
tp148
a(I249
I296
tp149
asS'sw2005_A_0178'
p150
(lp151
(I0
I23
tp152
asS'sw2005_A_0001'
p153
(lp154
(I0
I46
tp155
asS'sw2005_A_0002'
p156
(lp157
(I0
I22
tp158
a(I22
I71
tp159
a(I70
I121
tp160
a(I144
I156
tp161
a(I155
I172
tp162
a(I172
I178
tp163
a(I178
I218
tp164
a(I218
I246
tp165
a(I271
I301
tp166
a(I300
I313
tp167
a(I312
I333
tp168
a(I332
I359
tp169
a(I359
I399
tp170
a(I407
I448
tp171
a(I454
I485
tp172
a(I485
I532
tp173
a(I571
I622
tp174
a(I621
I639
tp175
a(I639
I691
tp176
a(I717
I758
tp177
a(I778
I804
tp178
a(I804
I842
tp179
a(I841
I878
tp180
a(I877
I884
tp181
a(I883
I922
tp182
a(I922
I957
tp183
asS'sw2005_A_0005'
p184
(lp185
(I0
I36
tp186
asS'sw2005_A_0004'
p187
(lp188
(I0
I45
tp189
asS'sw2005_A_0164'
p190
(lp191
(I0
I31
tp192
a(I31
I44
tp193
a(I43
I66
tp194
a(I65
I76
tp195
a(I75
I90
tp196
a(I89
I119
tp197
a(I118
I134
tp198
a(I133
I214
tp199
a(I213
I226
tp200
a(I225
I261
tp201
a(I272
I282
tp202
a(I281
I297
tp203
a(I296
I327
tp204
a(I326
I335
tp205
a(I334
I346
tp206
a(I345
I371
tp207
a(I370
I449
tp208
a(I492
I515
tp209
a(I514
I535
tp210
a(I534
I553
tp211
a(I542
I565
tp212
a(I593
I606
tp213
a(I605
I637
tp214
a(I670
I686
tp215
a(I685
I716
tp216
a(I715
I739
tp217
a(I738
I751
tp218
a(I759
I793
tp219
a(I792
I806
tp220
a(I814
I831
tp221
a(I830
I872
tp222
a(I871
I920
tp223
a(I919
I953
tp224
a(I952
I963
tp225
a(I962
I988
tp226
a(I987
I1002
tp227
a(I995
I1011
tp228
a(I1010
I1033
tp229
a(I1032
I1043
tp230
a(I1042
I1103
tp231
a(I1138
I1153
tp232
a(I1152
I1163
tp233
a(I1162
I1234
tp234
a(I1233
I1244
tp235
a(I1243
I1285
tp236
a(I1284
I1312
tp237
a(I1357
I1388
tp238
a(I1387
I1410
tp239
a(I1409
I1461
tp240
asS'sw2005_A_0162'
p241
(lp242
(I0
I16
tp243
a(I15
I35
tp244
a(I39
I62
tp245
asS'sw2005_A_0160'
p246
(lp247
(I0
I22
tp248
a(I62
I87
tp249
a(I86
I96
tp250
a(I95
I120
tp251
a(I119
I126
tp252
a(I125
I132
tp253
a(I131
I157
tp254
a(I156
I188
tp255
a(I187
I201
tp256
a(I200
I218
tp257
a(I217
I228
tp258
a(I227
I248
tp259
a(I247
I290
tp260
a(I289
I332
tp261
asS'sw2005_A_0080'
p262
(lp263
(I0
I14
tp264
a(I13
I58
tp265
a(I57
I97
tp266
a(I128
I177
tp267
a(I226
I241
tp268
a(I240
I296
tp269
asS'sw2005_A_0082'
p270
(lp271
(I0
I7
tp272
a(I6
I17
tp273
a(I16
I37
tp274
a(I36
I43
tp275
a(I42
I55
tp276
a(I54
I82
tp277
a(I110
I122
tp278
a(I121
I148
tp279
a(I163
I192
tp280
a(I191
I220
tp281
a(I219
I233
tp282
a(I232
I258
tp283
a(I257
I264
tp284
a(I263
I273
tp285
a(I272
I298
tp286
a(I297
I330
tp287
a(I329
I361
tp288
a(I360
I376
tp289
a(I390
I396
tp290
a(I395
I417
tp291
a(I416
I426
tp292
a(I425
I433
tp293
a(I432
I486
tp294
a(I485
I520
tp295
a(I519
I528
tp296
a(I527
I542
tp297
a(I541
I571
tp298
a(I580
I615
tp299
a(I614
I628
tp300
a(I658
I698
tp301
a(I697
I741
tp302
a(I740
I773
tp303
asS'sw2005_A_0087'
p304
(lp305
(I0
I21
tp306
a(I20
I54
tp307
asS'sw2005_A_0086'
p308
(lp309
(I0
I20
tp310
a(I19
I44
tp311
asS'sw2005_A_0038'
p312
(lp313
(I0
I19
tp314
a(I18
I35
tp315
a(I34
I59
tp316
a(I58
I79
tp317
a(I78
I104
tp318
a(I103
I123
tp319
a(I122
I140
tp320
a(I139
I155
tp321
a(I154
I186
tp322
a(I205
I223
tp323
a(I222
I249
tp324
a(I248
I258
tp325
a(I257
I271
tp326
a(I270
I310
tp327
asS'sw2005_A_0012'
p328
(lp329
(I0
I37
tp330
asS'sw2005_A_0010'
p331
(lp332
(I0
I43
tp333
asS'sw2005_A_0208'
p334
(lp335
(I0
I47
tp336
asS'sw2005_A_0157'
p337
(lp338
(I0
I37
tp339
asS'sw2005_A_0155'
p340
(lp341
(I0
I37
tp342
asS'sw2005_A_0154'
p343
(lp344
(I0
I37
tp345
asS'sw2005_A_0202'
p346
(lp347
(I0
I37
tp348
asS'sw2005_A_0201'
p349
(lp350
(I0
I37
tp351
asS'sw2005_A_0200'
p352
(lp353
(I0
I37
tp354
asS'sw2005_A_0205'
p355
(lp356
(I0
I30
tp357
a(I151
I160
tp358
a(I159
I176
tp359
a(I175
I190
tp360
a(I189
I205
tp361
a(I204
I230
tp362
asS'sw2005_A_0204'
p363
(lp364
(I0
I46
tp365
asS'sw2005_A_0092'
p366
(lp367
(I0
I8
tp368
a(I7
I17
tp369
a(I16
I26
tp370
a(I25
I35
tp371
a(I34
I50
tp372
a(I72
I124
tp373
a(I123
I147
tp374
a(I146
I170
tp375
a(I245
I257
tp376
a(I256
I293
tp377
a(I292
I323
tp378
a(I322
I334
tp379
a(I333
I346
tp380
a(I345
I377
tp381
a(I376
I392
tp382
a(I391
I407
tp383
a(I406
I413
tp384
a(I412
I420
tp385
a(I419
I453
tp386
a(I452
I462
tp387
a(I461
I475
tp388
a(I474
I514
tp389
a(I513
I530
tp390
a(I529
I545
tp391
a(I544
I575
tp392
a(I575
I592
tp393
a(I591
I613
tp394
a(I612
I624
tp395
a(I624
I656
tp396
asS'sw2005_A_0091'
p397
(lp398
(I0
I15
tp399
a(I14
I29
tp400
a(I28
I52
tp401
asS'sw2005_A_0097'
p402
(lp403
(I0
I36
tp404
asS'sw2005_A_0098'
p405
(lp406
(I0
I37
tp407
asS'sw2005_A_0099'
p408
(lp409
(I0
I13
tp410
a(I12
I25
tp411
a(I24
I51
tp412
asS'sw2005_A_0148'
p413
(lp414
(I0
I20
tp415
a(I19
I36
tp416
asS'sw2005_A_0149'
p417
(lp418
(I0
I29
tp419
a(I28
I60
tp420
a(I59
I73
tp421
a(I72
I85
tp422
a(I84
I99
tp423
a(I98
I102
tp424
a(I101
I124
tp425
a(I123
I176
tp426
asS'sw2005_A_0020'
p427
(lp428
(I0
I37
tp429
asS'sw2005_A_0140'
p430
(lp431
(I0
I14
tp432
a(I13
I20
tp433
a(I19
I65
tp434
a(I64
I81
tp435
a(I80
I115
tp436
a(I127
I165
tp437
a(I205
I227
tp438
a(I226
I281
tp439
a(I333
I346
tp440
a(I345
I372
tp441
a(I371
I419
tp442
a(I418
I447
tp443
a(I446
I457
tp444
a(I456
I479
tp445
a(I478
I491
tp446
a(I490
I505
tp447
a(I504
I564
tp448
a(I578
I587
tp449
a(I586
I614
tp450
a(I613
I675
tp451
a(I674
I689
tp452
a(I688
I748
tp453
asS'sw2005_A_0214'
p454
(lp455
(I0
I40
tp456
asS'sw2005_A_0210'
p457
(lp458
(I0
I15
tp459
a(I14
I41
tp460
asS'sw2005_B_0009'
p461
(lp462
(I0
I21
tp463
a(I20
I38
tp464
a(I37
I50
tp465
a(I78
I99
tp466
a(I98
I136
tp467
a(I135
I182
tp468
a(I181
I209
tp469
a(I220
I240
tp470
a(I220
I250
tp471
a(I343
I386
tp472
a(I416
I433
tp473
a(I432
I455
tp474
a(I454
I477
tp475
a(I476
I487
tp476
a(I486
I521
tp477
asS'sw2005_A_0212'
p478
(lp479
(I0
I30
tp480
asS'sw2005_B_0006'
p481
(lp482
(I0
I14
tp483
a(I9
I15
tp484
a(I14
I35
tp485
a(I34
I66
tp486
a(I65
I90
tp487
a(I89
I142
tp488
a(I181
I207
tp489
a(I206
I225
tp490
a(I243
I256
tp491
a(I255
I271
tp492
a(I331
I367
tp493
a(I366
I383
tp494
a(I382
I412
tp495
asS'sw2005_B_0007'
p496
(lp497
(I0
I31
tp498
a(I38
I68
tp499
asS'sw2005_B_0003'
p500
(lp501
(I0
I12
tp502
a(I11
I25
tp503
a(I24
I50
tp504
a(I49
I64
tp505
a(I46
I61
tp506
a(I60
I73
tp507
a(I72
I87
tp508
a(I86
I101
tp509
a(I100
I115
tp510
a(I185
I200
tp511
a(I199
I208
tp512
a(I207
I216
tp513
a(I215
I244
tp514
a(I243
I258
tp515
a(I257
I289
tp516
a(I288
I295
tp517
a(I294
I301
tp518
a(I300
I331
tp519
a(I330
I344
tp520
a(I339
I345
tp521
a(I344
I361
tp522
a(I360
I389
tp523
a(I388
I399
tp524
a(I398
I419
tp525
a(I418
I431
tp526
a(I430
I441
tp527
a(I440
I470
tp528
a(I469
I484
tp529
a(I475
I491
tp530
a(I490
I517
tp531
a(I516
I527
tp532
a(I526
I543
tp533
a(I601
I635
tp534
a(I651
I659
tp535
a(I658
I673
tp536
a(I689
I711
tp537
a(I689
I723
tp538
a(I740
I758
tp539
a(I757
I775
tp540
a(I806
I828
tp541
a(I895
I902
tp542
a(I901
I914
tp543
a(I913
I926
tp544
a(I925
I941
tp545
a(I940
I961
tp546
a(I960
I992
tp547
asS'sw2005_A_0031'
p548
(lp549
(I0
I43
tp550
asS'sw2005_A_0032'
p551
(lp552
(I0
I37
tp553
asS'sw2005_A_0033'
p554
(lp555
(I0
I26
tp556
a(I25
I36
tp557
a(I35
I72
tp558
a(I71
I99
tp559
a(I145
I182
tp560
a(I200
I208
tp561
a(I207
I234
tp562
a(I233
I278
tp563
a(I296
I326
tp564
a(I325
I344
tp565
a(I343
I392
tp566
a(I391
I411
tp567
a(I410
I423
tp568
a(I422
I429
tp569
a(I428
I437
tp570
a(I436
I463
tp571
a(I462
I484
tp572
a(I462
I471
tp573
a(I502
I529
tp574
a(I528
I554
tp575
asS'sw2005_A_0034'
p576
(lp577
(I0
I25
tp578
a(I75
I107
tp579
a(I106
I127
tp580
a(I126
I143
tp581
a(I142
I164
tp582
a(I163
I177
tp583
a(I176
I214
tp584
a(I213
I249
tp585
a(I266
I279
tp586
a(I278
I309
tp587
a(I308
I332
tp588
a(I332
I368
tp589
a(I367
I400
tp590
a(I399
I425
tp591
a(I424
I454
tp592
a(I453
I465
tp593
a(I464
I487
tp594
a(I486
I534
tp595
asS'sw2005_A_0035'
p596
(lp597
(I0
I40
tp598
a(I39
I85
tp599
a(I141
I166
tp600
a(I165
I176
tp601
a(I175
I181
tp602
a(I180
I238
tp603
asS'sw2005_A_0036'
p604
(lp605
(I0
I43
tp606
a(I42
I74
tp607
a(I73
I135
tp608
a(I134
I149
tp609
a(I148
I176
tp610
a(I175
I196
tp611
a(I265
I337
tp612
a(I317
I332
tp613
a(I331
I377
tp614
asS'sw2005_A_0131'
p615
(lp616
(I0
I7
tp617
a(I6
I19
tp618
a(I18
I34
tp619
a(I33
I55
tp620
a(I54
I76
tp621
a(I75
I124
tp622
a(I123
I138
tp623
a(I137
I149
tp624
a(I148
I177
tp625
a(I176
I221
tp626
asS'sw2005_A_0130'
p627
(lp628
(I0
I41
tp629
a(I68
I122
tp630
asS'sw2005_A_0132'
p631
(lp632
(I0
I15
tp633
a(I14
I27
tp634
a(I26
I47
tp635
a(I46
I61
tp636
a(I46
I59
tp637
a(I60
I76
tp638
a(I85
I103
tp639
a(I102
I121
tp640
a(I102
I125
tp641
a(I124
I142
tp642
a(I141
I166
tp643
a(I166
I181
tp644
a(I180
I196
tp645
a(I219
I234
tp646
a(I233
I245
tp647
a(I244
I260
tp648
a(I259
I287
tp649
a(I286
I293
tp650
a(I323
I337
tp651
a(I336
I343
tp652
a(I342
I351
tp653
a(I350
I386
tp654
a(I385
I411
tp655
a(I410
I423
tp656
a(I447
I462
tp657
a(I475
I534
tp658
a(I530
I546
tp659
a(I545
I553
tp660
a(I552
I585
tp661
a(I584
I606
tp662
a(I605
I624
tp663
a(I623
I642
tp664
a(I641
I655
tp665
a(I682
I693
tp666
a(I692
I707
tp667
a(I706
I743
tp668
a(I742
I758
tp669
a(I757
I834
tp670
asS'sw2005_A_0137'
p671
(lp672
(I0
I40
tp673
a(I39
I76
tp674
a(I211
I224
tp675
a(I223
I235
tp676
a(I240
I257
tp677
a(I256
I274
tp678
a(I273
I296
tp679
a(I295
I317
tp680
a(I336
I388
tp681
a(I428
I446
tp682
a(I445
I457
tp683
a(I485
I495
tp684
a(I494
I508
tp685
a(I530
I589
tp686
a(I603
I685
tp687
a(I705
I727
tp688
a(I726
I738
tp689
a(I737
I798
tp690
a(I854
I872
tp691
a(I871
I890
tp692
a(I899
I922
tp693
a(I973
I1061
tp694
a(I1081
I1092
tp695
a(I1091
I1105
tp696
a(I1104
I1126
tp697
a(I1162
I1176
tp698
a(I1189
I1251
tp699
a(I1250
I1266
tp700
a(I1265
I1315
tp701
a(I1340
I1375
tp702
a(I1416
I1429
tp703
a(I1428
I1480
tp704
a(I1479
I1498
tp705
a(I1497
I1522
tp706
asS'sw2005_B_0008'
p707
(lp708
(I0
I20
tp709
a(I19
I54
tp710
a(I65
I95
tp711
a(I94
I101
tp712
a(I100
I132
tp713
a(I131
I138
tp714
a(I137
I146
tp715
a(I163
I195
tp716
a(I194
I226
tp717
asS'sw2005_A_0120'
p718
(lp719
(I0
I15
tp720
a(I14
I42
tp721
a(I41
I56
tp722
a(I55
I90
tp723
a(I113
I133
tp724
a(I132
I149
tp725
a(I148
I185
tp726
a(I184
I212
tp727
asS'sw2005_A_0121'
p728
(lp729
(I0
I14
tp730
a(I13
I52
tp731
a(I51
I69
tp732
a(I127
I161
tp733
a(I160
I223
tp734
a(I222
I242
tp735
a(I241
I252
tp736
a(I251
I285
tp737
a(I284
I303
tp738
a(I302
I327
tp739
a(I331
I359
tp740
asS'sw2005_A_0126'
p741
(lp742
(I0
I70
tp743
a(I90
I103
tp744
a(I106
I120
tp745
a(I119
I130
tp746
a(I129
I142
tp747
a(I141
I145
tp748
a(I144
I158
tp749
a(I157
I172
tp750
asS'sw2005_A_0127'
p751
(lp752
(I0
I9
tp753
a(I8
I22
tp754
a(I21
I44
tp755
a(I43
I51
tp756
a(I50
I62
tp757
a(I61
I142
tp758
a(I174
I204
tp759
a(I203
I239
tp760
asS'sw2005_A_0125'
p761
(lp762
(I0
I70
tp763
a(I90
I104
tp764
a(I103
I136
tp765
a(I135
I154
tp766
a(I153
I170
tp767
a(I169
I185
tp768
a(I184
I239
tp769
a(I238
I292
tp770
a(I339
I351
tp771
a(I350
I374
tp772
a(I373
I448
tp773
a(I482
I494
tp774
a(I493
I504
tp775
a(I503
I513
tp776
a(I512
I573
tp777
asS'sw2005_A_0045'
p778
(lp779
(I0
I25
tp780
a(I59
I68
tp781
a(I67
I76
tp782
a(I75
I98
tp783
a(I97
I142
tp784
a(I141
I156
tp785
a(I155
I173
tp786
a(I172
I199
tp787
a(I198
I221
tp788
a(I220
I246
tp789
a(I264
I278
tp790
a(I277
I305
tp791
a(I304
I333
tp792
a(I332
I339
tp793
a(I338
I409
tp794
asS'sw2005_A_0044'
p795
(lp796
(I0
I44
tp797
a(I43
I55
tp798
a(I54
I73
tp799
a(I113
I129
tp800
a(I128
I142
tp801
a(I141
I152
tp802
a(I151
I167
tp803
a(I176
I202
tp804
a(I201
I208
tp805
a(I207
I249
tp806
a(I248
I268
tp807
a(I328
I352
tp808
a(I351
I362
tp809
a(I361
I429
tp810
asS'sw2005_A_0047'
p811
(lp812
(I0
I14
tp813
a(I13
I24
tp814
a(I23
I40
tp815
a(I39
I62
tp816
a(I61
I86
tp817
a(I85
I125
tp818
a(I124
I143
tp819
a(I142
I166
tp820
a(I165
I202
tp821
a(I201
I217
tp822
a(I216
I253
tp823
a(I252
I259
tp824
a(I258
I292
tp825
a(I291
I330
tp826
asS'sw2005_A_0041'
p827
(lp828
(I0
I40
tp829
a(I39
I84
tp830
a(I155
I173
tp831
a(I172
I187
tp832
a(I186
I209
tp833
a(I208
I267
tp834
a(I309
I367
tp835
asS'sw2005_A_0040'
p836
(lp837
(I0
I21
tp838
a(I20
I76
tp839
a(I125
I149
tp840
a(I148
I157
tp841
a(I156
I170
tp842
a(I169
I246
tp843
asS'sw2005_A_0049'
p844
(lp845
(I0
I20
tp846
a(I71
I79
tp847
a(I78
I90
tp848
a(I89
I112
tp849
a(I111
I153
tp850
a(I203
I234
tp851
a(I233
I258
tp852
a(I257
I269
tp853
a(I268
I275
tp854
a(I274
I281
tp855
a(I280
I309
tp856
a(I308
I337
tp857
a(I336
I378
tp858
a(I377
I391
tp859
a(I390
I446
tp860
asS'sw2005_A_0068'
p861
(lp862
(I0
I30
tp863
a(I35
I71
tp864
a(I70
I100
tp865
a(I129
I163
tp866
a(I217
I240
tp867
asS'sw2005_A_0117'
p868
(lp869
(I0
I22
tp870
a(I21
I40
tp871
a(I39
I64
tp872
a(I63
I77
tp873
a(I76
I131
tp874
asS'sw2005_A_0116'
p875
(lp876
(I0
I27
tp877
a(I26
I48
tp878
a(I47
I70
tp879
a(I69
I81
tp880
a(I80
I96
tp881
a(I95
I132
tp882
a(I132
I143
tp883
a(I142
I163
tp884
a(I162
I171
tp885
a(I170
I186
tp886
a(I195
I205
tp887
a(I204
I218
tp888
a(I217
I241
tp889
a(I259
I288
tp890
a(I287
I323
tp891
a(I322
I344
tp892
a(I343
I363
tp893
a(I362
I385
tp894
a(I384
I408
tp895
a(I407
I433
tp896
a(I432
I446
tp897
a(I445
I507
tp898
a(I549
I571
tp899
asS'sw2005_A_0115'
p900
(lp901
(I0
I37
tp902
asS'sw2005_A_0114'
p903
(lp904
(I0
I37
tp905
asS'sw2005_A_0118'
p906
(lp907
(I0
I39
tp908
a(I53
I78
tp909
a(I77
I118
tp910
a(I117
I150
tp911
a(I149
I167
tp912
a(I166
I205
tp913
a(I204
I247
tp914
asS'sw2005_A_0054'
p915
(lp916
(I0
I16
tp917
a(I15
I48
tp918
a(I47
I58
tp919
a(I57
I74
tp920
a(I73
I104
tp921
a(I103
I130
tp922
a(I129
I141
tp923
a(I140
I151
tp924
a(I150
I230
tp925
a(I229
I254
tp926
a(I296
I308
tp927
a(I307
I338
tp928
a(I376
I408
tp929
a(I407
I426
tp930
a(I425
I446
tp931
a(I461
I486
tp932
a(I508
I523
tp933
a(I522
I543
tp934
a(I537
I562
tp935
a(I561
I582
tp936
a(I581
I611
tp937
a(I610
I632
tp938
a(I631
I684
tp939
asS'sw2005_A_0052'
p940
(lp941
(I0
I33
tp942
a(I32
I77
tp943
a(I134
I147
tp944
a(I146
I162
tp945
a(I161
I193
tp946
a(I192
I239
tp947
a(I238
I256
tp948
a(I255
I298
tp949
asS'sw2005_A_0195'
p950
(lp951
(I0
I12
tp952
a(I11
I29
tp953
a(I52
I63
tp954
a(I62
I79
tp955
a(I78
I92
tp956
a(I91
I115
tp957
a(I114
I137
tp958
a(I147
I161
tp959
a(I160
I173
tp960
a(I172
I187
tp961
a(I186
I207
tp962
a(I206
I215
tp963
a(I225
I239
tp964
a(I238
I253
tp965
a(I252
I281
tp966
a(I280
I293
tp967
a(I292
I331
tp968
asS'sw2005_A_0192'
p969
(lp970
(I0
I16
tp971
a(I15
I22
tp972
a(I21
I33
tp973
a(I32
I62
tp974
a(I61
I69
tp975
a(I68
I92
tp976
a(I91
I101
tp977
a(I100
I116
tp978
a(I115
I136
tp979
a(I135
I165
tp980
a(I232
I253
tp981
a(I252
I277
tp982
a(I276
I302
tp983
a(I359
I375
tp984
a(I374
I396
tp985
a(I415
I450
tp986
a(I449
I462
tp987
a(I461
I469
tp988
a(I468
I504
tp989
a(I503
I534
tp990
a(I533
I549
tp991
a(I548
I555
tp992
a(I554
I588
tp993
a(I587
I632
tp994
a(I674
I701
tp995
a(I700
I741
tp996
a(I791
I812
tp997
a(I811
I840
tp998
a(I877
I917
tp999
a(I916
I932
tp1000
a(I931
I1002
tp1001
a(I1001
I1014
tp1002
a(I1013
I1032
tp1003
a(I1031
I1038
tp1004
a(I1037
I1044
tp1005
a(I1043
I1104
tp1006
asS'sw2005_A_0058'
p1007
(lp1008
(I0
I36
tp1009
asS'sw2005_A_0059'
p1010
(lp1011
(I0
I8
tp1012
a(I7
I27
tp1013
a(I47
I62
tp1014
a(I61
I108
tp1015
a(I107
I129
tp1016
a(I128
I145
tp1017
a(I181
I188
tp1018
a(I187
I195
tp1019
a(I194
I209
tp1020
a(I208
I232
tp1021
a(I231
I238
tp1022
a(I237
I248
tp1023
a(I247
I282
tp1024
a(I281
I321
tp1025
a(I320
I350
tp1026
a(I368
I385
tp1027
a(I457
I498
tp1028
a(I497
I518
tp1029
a(I517
I546
tp1030
a(I545
I557
tp1031
a(I556
I564
tp1032
a(I563
I618
tp1033
a(I617
I630
tp1034
a(I629
I661
tp1035
a(I660
I694
tp1036
a(I693
I758
tp1037
a(I792
I812
tp1038
a(I811
I819
tp1039
a(I818
I874
tp1040
a(I924
I958
tp1041
a(I957
I1003
tp1042
a(I1002
I1034
tp1043
a(I1033
I1045
tp1044
a(I1044
I1079
tp1045
a(I1078
I1090
tp1046
a(I1089
I1119
tp1047
a(I1118
I1127
tp1048
a(I1126
I1133
tp1049
a(I1132
I1163
tp1050
a(I1162
I1206
tp1051
asS'sw2005_A_0101'
p1052
(lp1053
(I0
I37
tp1054
asS'sw2005_A_0103'
p1055
(lp1056
(I0
I43
tp1057
asS'sw2005_A_0107'
p1058
(lp1059
(I0
I37
tp1060
asS'sw2005_A_0109'
p1061
(lp1062
(I0
I43
tp1063
asS'sw2005_A_0188'
p1064
(lp1065
(I0
I38
tp1066
a(I37
I65
tp1067
a(I64
I79
tp1068
a(I78
I115
tp1069
a(I158
I181
tp1070
a(I180
I198
tp1071
a(I197
I205
tp1072
a(I204
I216
tp1073
a(I215
I253
tp1074
a(I355
I389
tp1075
a(I421
I438
tp1076
a(I437
I458
tp1077
a(I457
I474
tp1078
a(I473
I491
tp1079
a(I485
I501
tp1080
a(I500
I526
tp1081
a(I525
I546
tp1082
a(I545
I570
tp1083
asS'sw2005_A_0062'
p1084
(lp1085
(I0
I23
tp1086
a(I80
I89
tp1087
a(I88
I110
tp1088
a(I109
I155
tp1089
a(I154
I174
tp1090
a(I173
I236
tp1091
a(I235
I250
tp1092
a(I234
I250
tp1093
a(I249
I264
tp1094
a(I253
I268
tp1095
a(I267
I292
tp1096
a(I291
I300
tp1097
a(I299
I345
tp1098
asS'sw2005_A_0067'
p1099
(lp1100
(I0
I36
tp1101
asS'sw2005_A_0064'
p1102
(lp1103
(I0
I18
tp1104
a(I17
I43
tp1105
asS'sw2005_A_0180'
p1106
(lp1107
(I0
I11
tp1108
a(I10
I31
tp1109
a(I30
I53
tp1110
a(I52
I81
tp1111
a(I80
I105
tp1112
a(I104
I142
tp1113
a(I141
I175
tp1114
asS'sw2005_A_0069'
p1115
(lp1116
(I0
I40
tp1117
a(I39
I55
tp1118
a(I54
I62
tp1119
a(I61
I68
tp1120
a(I67
I100
tp1121
a(I99
I173
tp1122
a(I189
I203
tp1123
a(I202
I222
tp1124
a(I221
I233
tp1125
a(I232
I257
tp1126
a(I256
I283
tp1127
a(I282
I355
tp1128
a(I354
I371
tp1129
a(I370
I382
tp1130
a(I381
I426
tp1131
a(I425
I454
tp1132
a(I486
I522
tp1133
a(I521
I534
tp1134
a(I533
I563
tp1135
a(I562
I596
tp1136
a(I595
I654
tp1137
a(I653
I680
tp1138
a(I679
I697
tp1139
a(I696
I769
tp1140
a(I820
I839
tp1141
a(I838
I856
tp1142
a(I867
I912
tp1143
a(I911
I924
tp1144
asS'sw2005_A_0183'
p1145
(lp1146
(I0
I37
tp1147
asS'sw2005_A_0184'
p1148
(lp1149
(I0
I30
tp1150
a(I29
I70
tp1151
a(I90
I103
tp1152
a(I102
I129
tp1153
a(I128
I140
tp1154
a(I139
I165
tp1155
a(I164
I181
tp1156
a(I195
I206
tp1157
a(I205
I213
tp1158
a(I235
I250
tp1159
a(I249
I273
tp1160
a(I290
I334
tp1161
a(I376
I384
tp1162
a(I383
I402
tp1163
a(I401
I414
tp1164
a(I409
I421
tp1165
a(I432
I445
tp1166
a(I437
I450
tp1167
a(I449
I465
tp1168
a(I464
I473
tp1169
a(I513
I533
tp1170
a(I532
I545
tp1171
a(I544
I556
tp1172
a(I555
I626
tp1173
a(I625
I639
tp1174
a(I638
I651
tp1175
a(I650
I675
tp1176
a(I674
I710
tp1177
a(I709
I734
tp1178
a(I733
I781
tp1179
a(I868
I913
tp1180
a(I912
I929
tp1181
a(I928
I944
tp1182
a(I929
I941
tp1183
a(I940
I961
tp1184
a(I970
I986
tp1185
a(I985
I1032
tp1186
a(I1031
I1078
tp1187
asS'sw2005_A_0187'
p1188
(lp1189
(I0
I8
tp1190
a(I7
I21
tp1191
a(I20
I37
tp1192
a(I36
I45
tp1193
a(I48
I58
tp1194
as.